target datalayout = "e-m:e-p270:32:32-p271:32:32-p272:64:64-i64:64-i128:128-f80:128-n8:16:32:64-S128"
target triple = "x86_64-pc-linux-gnu"

%struct.xl_restore_point = type { i64, [64 x i8] }

@.str.14 = private unnamed_addr constant [7 x i8] c"xlog.c\00", align 1
@.str.69 = private unnamed_addr constant [36 x i8] c"restore point \22%s\22 created at %X/%X\00", align 1
@__func__.XLogRestorePoint = private unnamed_addr constant [17 x i8] c"XLogRestorePoint\00", align 1

; Function Attrs: nounwind uwtable
define dso_local i64 @XLogRestorePoint(ptr noundef %0) #0 {
  %2 = alloca ptr, align 8
  %3 = alloca i64, align 8
  %4 = alloca %struct.xl_restore_point, align 8
  %5 = alloca i32, align 4
  store ptr %0, ptr %2, align 8
  call void @llvm.lifetime.start.p0(i64 8, ptr %3) #16
  call void @llvm.lifetime.start.p0(i64 72, ptr %4) #16
  %6 = call i64 @GetCurrentTimestamp()
  %7 = getelementptr inbounds nuw %struct.xl_restore_point, ptr %4, i32 0, i32 0
  store i64 %6, ptr %7, align 8
  %8 = getelementptr inbounds nuw %struct.xl_restore_point, ptr %4, i32 0, i32 1
  %9 = getelementptr inbounds [64 x i8], ptr %8, i64 0, i64 0
  %10 = load ptr, ptr %2, align 8
  %11 = call i64 @strlcpy(ptr noundef %9, ptr noundef %10, i64 noundef 64)
  call void @XLogBeginInsert()
  call void @XLogRegisterData(ptr noundef %4, i32 noundef 72)
  %12 = call i64 @XLogInsert(i8 noundef zeroext 0, i8 noundef zeroext 112)
  store i64 %12, ptr %3, align 8
  br label %13

13:                                               ; preds = %1
  br i1 false, label %14, label %16

14:                                               ; preds = %13
  %15 = call zeroext i1 @errstart_cold(i32 noundef 15, ptr noundef null) #17
  br i1 %15, label %18, label %29

16:                                               ; preds = %13
  %17 = call zeroext i1 @errstart(i32 noundef 15, ptr noundef null)
  br i1 %17, label %18, label %29

18:                                               ; preds = %16, %14
  %19 = load ptr, ptr %2, align 8
  br label %20

20:                                               ; preds = %18
  br label %21

21:                                               ; preds = %20
  br label %22

22:                                               ; preds = %21
  store i32 1, ptr %5, align 4
  %23 = load i64, ptr %3, align 8
  %24 = lshr i64 %23, 32
  %25 = trunc i64 %24 to i32
  %26 = load i64, ptr %3, align 8
  %27 = trunc i64 %26 to i32
  %28 = call i32 (ptr, ...) @errmsg(ptr noundef @.str.69, ptr noundef %19, i32 noundef %25, i32 noundef %27)
  call void @errfinish(ptr noundef @.str.14, i32 noundef 8114, ptr noundef @__func__.XLogRestorePoint)
  br label %29

29:                                               ; preds = %22, %16, %14
  br label %30

30:                                               ; preds = %29
  br label %31

31:                                               ; preds = %30
  %32 = load i64, ptr %3, align 8
  call void @llvm.lifetime.end.p0(i64 72, ptr %4) #16
  call void @llvm.lifetime.end.p0(i64 8, ptr %3) #16
  ret i64 %32
}