; Function Attrs: nounwind uwtable
define dso_local i64 @XLogRestorePoint(ptr noundef %0) local_unnamed_addr #0 {
  %2 = alloca %struct.xl_restore_point, align 8
  call void @llvm.lifetime.start.p0(i64 72, ptr nonnull %2) #26
  %3 = tail call i64 @GetCurrentTimestamp() #26
  store i64 %3, ptr %2, align 8
  %4 = getelementptr inbounds nuw i8, ptr %2, i64 8
  %5 = call i64 @strlcpy(ptr noundef nonnull dereferenceable(1) %4, ptr noundef nonnull dereferenceable(1) %0, i64 noundef 64) #26
  call void @XLogBeginInsert() #26
  call void @XLogRegisterData(ptr noundef nonnull %2, i32 noundef 72) #26
  %6 = call i64 @XLogInsert(i8 noundef zeroext 0, i8 noundef zeroext 112) #26
  %7 = call zeroext i1 @errstart(i32 noundef 15, ptr noundef null) #26
  br i1 %7, label %8, label %13

8:                                                ; preds = %1
  %9 = lshr i64 %6, 32
  %10 = trunc nuw i64 %9 to i32
  %11 = trunc i64 %6 to i32
  %12 = call i32 (ptr, ...) @errmsg(ptr noundef nonnull @.str.69, ptr noundef nonnull %0, i32 noundef %10, i32 noundef %11) #26
  call void @errfinish(ptr noundef nonnull @.str.14, i32 noundef 8114, ptr noundef nonnull @__func__.XLogRestorePoint) #26
  br label %13

13:                                               ; preds = %8, %1
  call void @llvm.lifetime.end.p0(i64 72, ptr nonnull %2) #26
  ret i64 %6
}